target datalayout = "e-m:e-p270:32:32-p271:32:32-p272:64:64-i64:64-i128:128-f80:128-n8:16:32:64-S128"
target triple = "x86_64-pc-linux-gnu"

%struct.node_t = type { ptr }
%"class.zmq::radix_tree_t" = type { %struct.node_t, %"class.zmq::atomic_counter_t" }
%"class.zmq::atomic_counter_t" = type { %"struct.std::atomic", [4 x i8] }
%"struct.std::atomic" = type { %"struct.std::__atomic_base" }
%"struct.std::__atomic_base" = type { i32 }
%struct.match_result_t = type { i64, i64, i64, i64, %struct.node_t, %struct.node_t, %struct.node_t }

; Function Attrs: mustprogress nounwind uwtable
define noundef i32 @_ZN6node_t13prefix_lengthEv(ptr noundef nonnull align 8 dereferenceable(8) %0) #0 align 2 {
  %2 = alloca ptr, align 8
  %3 = alloca i32, align 4
  store ptr %0, ptr %2, align 8, !tbaa !3
  %4 = load ptr, ptr %2, align 8
  call void @llvm.lifetime.start.p0(i64 4, ptr %3) #17
  %5 = getelementptr inbounds nuw %struct.node_t, ptr %4, i32 0, i32 0
  %6 = load ptr, ptr %5, align 8, !tbaa !10
  %7 = getelementptr inbounds nuw i8, ptr %6, i64 4
  call void @llvm.memcpy.p0.p0.i64(ptr align 4 %3, ptr align 1 %7, i64 4, i1 false)
  %8 = load i32, ptr %3, align 4, !tbaa !12
  call void @llvm.lifetime.end.p0(i64 4, ptr %3) #17
  ret i32 %8
}

; Function Attrs: mustprogress nounwind uwtable
define noundef i32 @_ZN6node_t8refcountEv(ptr noundef nonnull align 8 dereferenceable(8) %0) #0 align 2 {
  %2 = alloca ptr, align 8
  %3 = alloca i32, align 4
  store ptr %0, ptr %2, align 8, !tbaa !3
  %4 = load ptr, ptr %2, align 8
  call void @llvm.lifetime.start.p0(i64 4, ptr %3) #17
  %5 = getelementptr inbounds nuw %struct.node_t, ptr %4, i32 0, i32 0
  %6 = load ptr, ptr %5, align 8, !tbaa !10
  call void @llvm.memcpy.p0.p0.i64(ptr align 4 %3, ptr align 1 %6, i64 4, i1 false)
  %7 = load i32, ptr %3, align 4, !tbaa !12
  call void @llvm.lifetime.end.p0(i64 4, ptr %3) #17
  ret i32 %7
}

; Function Attrs: mustprogress uwtable
define noundef zeroext i1 @_ZN3zmq12radix_tree_t5checkEPKhm(ptr noundef nonnull align 8 dereferenceable(16) %0, ptr noundef %1, i64 noundef %2) #3 align 2 {
  %4 = alloca i1, align 1
  %5 = alloca ptr, align 8
  %6 = alloca ptr, align 8
  %7 = alloca i64, align 8
  %8 = alloca %struct.match_result_t, align 8
  store ptr %0, ptr %5, align 8, !tbaa !20
  store ptr %1, ptr %6, align 8, !tbaa !8
  store i64 %2, ptr %7, align 8, !tbaa !14
  %9 = load ptr, ptr %5, align 8
  %10 = getelementptr inbounds nuw %"class.zmq::radix_tree_t", ptr %9, i32 0, i32 0
  %11 = call noundef i32 @_ZN6node_t8refcountEv(ptr noundef nonnull align 8 dereferenceable(8) %10)
  %12 = icmp ugt i32 %11, 0
  br i1 %12, label %13, label %14

13:                                               ; preds = %3
  store i1 true, ptr %4, align 1
  br label %34

14:                                               ; preds = %3
  call void @llvm.lifetime.start.p0(i64 56, ptr %8) #17
  %15 = load ptr, ptr %6, align 8, !tbaa !8
  %16 = load i64, ptr %7, align 8, !tbaa !14
  call void @_ZNK3zmq12radix_tree_t5matchEPKhmb(ptr dead_on_unwind writable sret(%struct.match_result_t) align 8 %8, ptr noundef nonnull align 8 dereferenceable(16) %9, ptr noundef %15, i64 noundef %16, i1 noundef zeroext true)
  %17 = getelementptr inbounds nuw %struct.match_result_t, ptr %8, i32 0, i32 0
  %18 = load i64, ptr %17, align 8, !tbaa !28
  %19 = load i64, ptr %7, align 8, !tbaa !14
  %20 = icmp eq i64 %18, %19
  br i1 %20, label %21, label %32

21:                                               ; preds = %14
  %22 = getelementptr inbounds nuw %struct.match_result_t, ptr %8, i32 0, i32 1
  %23 = load i64, ptr %22, align 8, !tbaa !30
  %24 = getelementptr inbounds nuw %struct.match_result_t, ptr %8, i32 0, i32 4
  %25 = call noundef i32 @_ZN6node_t13prefix_lengthEv(ptr noundef nonnull align 8 dereferenceable(8) %24)
  %26 = zext i32 %25 to i64
  %27 = icmp eq i64 %23, %26
  br i1 %27, label %28, label %32

28:                                               ; preds = %21
  %29 = getelementptr inbounds nuw %struct.match_result_t, ptr %8, i32 0, i32 4
  %30 = call noundef i32 @_ZN6node_t8refcountEv(ptr noundef nonnull align 8 dereferenceable(8) %29)
  %31 = icmp ugt i32 %30, 0
  br label %32

32:                                               ; preds = %28, %21, %14
  %33 = phi i1 [ false, %21 ], [ false, %14 ], [ %31, %28 ]
  store i1 %33, ptr %4, align 1
  call void @llvm.lifetime.end.p0(i64 56, ptr %8) #17
  br label %34

34:                                               ; preds = %32, %13
  %35 = load i1, ptr %4, align 1
  ret i1 %35
}