; Function Attrs: mustprogress uwtable
define noundef zeroext i1 @_ZN3zmq12radix_tree_t5checkEPKhm(ptr noundef nonnull readonly align 8 captures(none) dereferenceable(16) %0, ptr noundef %1, i64 noundef %2) local_unnamed_addr #7 align 2 {
  %4 = alloca %struct.match_result_t, align 8
  %5 = load ptr, ptr %0, align 8, !tbaa !3
  %.0.copyload.i = load i32, ptr %5, align 1
  %.not = icmp eq i32 %.0.copyload.i, 0
  br i1 %.not, label %6, label %21

6:                                                ; preds = %3
  call void @llvm.lifetime.start.p0(i64 56, ptr nonnull %4) #27
  call void @_ZNK3zmq12radix_tree_t5matchEPKhmb(ptr dead_on_unwind nonnull writable sret(%struct.match_result_t) align 8 %4, ptr noundef nonnull align 8 dereferenceable(16) %0, ptr noundef %1, i64 noundef %2, i1 noundef zeroext true)
  %7 = load i64, ptr %4, align 8, !tbaa !20
  %8 = icmp eq i64 %7, %2
  br i1 %8, label %9, label %19

9:                                                ; preds = %6
  %10 = getelementptr inbounds nuw i8, ptr %4, i64 8
  %11 = load i64, ptr %10, align 8, !tbaa !23
  %12 = getelementptr inbounds nuw i8, ptr %4, i64 32
  %13 = load ptr, ptr %12, align 8, !tbaa !3
  %14 = getelementptr inbounds nuw i8, ptr %13, i64 4
  %.0.copyload.i4 = load i32, ptr %14, align 1
  %15 = zext i32 %.0.copyload.i4 to i64
  %16 = icmp eq i64 %11, %15
  br i1 %16, label %17, label %19

17:                                               ; preds = %9
  %.0.copyload.i5 = load i32, ptr %13, align 1
  %18 = icmp ne i32 %.0.copyload.i5, 0
  br label %19

19:                                               ; preds = %17, %9, %6
  %20 = phi i1 [ false, %9 ], [ false, %6 ], [ %18, %17 ]
  call void @llvm.lifetime.end.p0(i64 56, ptr nonnull %4) #27
  br label %21

21:                                               ; preds = %3, %19
  %.0 = phi i1 [ %20, %19 ], [ true, %3 ]
  ret i1 %.0
}